target datalayout = "e-m:e-p270:32:32-p271:32:32-p272:64:64-i64:64-i128:128-f80:128-n8:16:32:64-S128"
target triple = "x86_64-pc-linux-gnu"

@.str.1 = private unnamed_addr constant [101 x i8] c"generated/home/dtcxzyw/WorkSpace/Projects/compilers/llvm-opt-benchmark/bench/hdf5/hdf5/src/H5Pdxpl.c\00", align 1
@H5E_PLIST_g = external global i64, align 8
@H5E_CANTCOPY_g = external global i64, align 8
@H5E_CANTCLOSEOBJ_g = external global i64, align 8
@__func__.H5P__dxfr_dset_io_hyp_sel_copy = private unnamed_addr constant [31 x i8] c"H5P__dxfr_dset_io_hyp_sel_copy\00", align 1
@.str.73 = private unnamed_addr constant [40 x i8] c"error copying the dataset I/O selection\00", align 1
@.str.74 = private unnamed_addr constant [46 x i8] c"error closing dataset I/O selection dataspace\00", align 1

; Function Attrs: nounwind uwtable
define internal i32 @H5P__dxfr_dset_io_hyp_sel_copy(ptr noundef %0, i64 noundef %1, ptr noundef %2) #0 {
  %4 = alloca ptr, align 8
  %5 = alloca i64, align 8
  %6 = alloca ptr, align 8
  %7 = alloca ptr, align 8
  %8 = alloca ptr, align 8
  %9 = alloca i32, align 4
  %10 = alloca i8, align 1
  store ptr %0, ptr %4, align 8
  store i64 %1, ptr %5, align 8
  store ptr %2, ptr %6, align 8
  %11 = load ptr, ptr %6, align 8
  %12 = load ptr, ptr %11, align 8
  store ptr %12, ptr %7, align 8
  store ptr null, ptr %8, align 8
  store i32 0, ptr %9, align 4
  store i8 0, ptr %10, align 1
  %13 = load ptr, ptr %7, align 8
  %14 = icmp ne ptr %13, null
  br i1 %14, label %15, label %37

15:                                               ; preds = %3
  %16 = load ptr, ptr %7, align 8
  %17 = call ptr @H5S_copy(ptr noundef %16, i1 noundef zeroext false, i1 noundef zeroext true)
  store ptr %17, ptr %8, align 8
  %18 = icmp eq ptr null, %17
  br i1 %18, label %19, label %34

19:                                               ; preds = %15
  br label %20

20:                                               ; preds = %19
  br label %21

21:                                               ; preds = %20
  br label %22

22:                                               ; preds = %21
  %23 = load i64, ptr @H5E_PLIST_g, align 8
  %24 = load i64, ptr @H5E_CANTCOPY_g, align 8
  %25 = call i32 (ptr, ptr, i32, i64, i64, ptr, ...) @H5E_printf_stack(ptr noundef @.str.1, ptr noundef @__func__.H5P__dxfr_dset_io_hyp_sel_copy, i32 noundef 2055, i64 noundef %23, i64 noundef %24, ptr noundef @.str.73)
  br label %26

26:                                               ; preds = %22
  store i8 1, ptr %10, align 1
  %27 = load i8, ptr %10, align 1
  %28 = trunc i8 %27 to i1
  %29 = zext i1 %28 to i8
  store i8 %29, ptr %10, align 1
  br label %30

30:                                               ; preds = %26
  br label %31

31:                                               ; preds = %30
  store i32 -1, ptr %9, align 4
  br label %38

32:                                               ; No predecessors!
  br label %33

33:                                               ; preds = %32
  br label %34

34:                                               ; preds = %33, %15
  %35 = load ptr, ptr %8, align 8
  %36 = load ptr, ptr %6, align 8
  store ptr %35, ptr %36, align 8
  br label %37

37:                                               ; preds = %34, %3
  br label %38

38:                                               ; preds = %60, %37, %31
  %39 = load i32, ptr %9, align 4
  %40 = icmp slt i32 %39, 0
  br i1 %40, label %41, label %64

41:                                               ; preds = %38
  %42 = load ptr, ptr %8, align 8
  %43 = icmp ne ptr %42, null
  br i1 %43, label %44, label %63

44:                                               ; preds = %41
  %45 = load ptr, ptr %8, align 8
  %46 = call i32 @H5S_close(ptr noundef %45)
  %47 = icmp slt i32 %46, 0
  br i1 %47, label %48, label %63

48:                                               ; preds = %44
  br label %49

49:                                               ; preds = %48
  br label %50

50:                                               ; preds = %49
  br label %51

51:                                               ; preds = %50
  %52 = load i64, ptr @H5E_PLIST_g, align 8
  %53 = load i64, ptr @H5E_CANTCLOSEOBJ_g, align 8
  %54 = call i32 (ptr, ptr, i32, i64, i64, ptr, ...) @H5E_printf_stack(ptr noundef @.str.1, ptr noundef @__func__.H5P__dxfr_dset_io_hyp_sel_copy, i32 noundef 2065, i64 noundef %52, i64 noundef %53, ptr noundef @.str.74)
  br label %55

55:                                               ; preds = %51
  store i8 1, ptr %10, align 1
  %56 = load i8, ptr %10, align 1
  %57 = trunc i8 %56 to i1
  %58 = zext i1 %57 to i8
  store i8 %58, ptr %10, align 1
  br label %59

59:                                               ; preds = %55
  br label %60

60:                                               ; preds = %59
  store i32 -1, ptr %9, align 4
  br label %38

61:                                               ; No predecessors!
  br label %62

62:                                               ; preds = %61
  br label %63

63:                                               ; preds = %62, %44, %41
  br label %64

64:                                               ; preds = %63, %38
  %65 = load i32, ptr %9, align 4
  ret i32 %65
}