; Function Attrs: nounwind uwtable
define internal range(i32 -1, 1) i32 @H5P__dxfr_dset_io_hyp_sel_copy(ptr nocapture readnone %0, i64 %1, ptr nocapture noundef %2) #0 {
  %4 = load ptr, ptr %2, align 8
  %.not = icmp eq ptr %4, null
  br i1 %.not, label %._crit_edge, label %5

5:                                                ; preds = %3
  %6 = tail call ptr @H5S_copy(ptr noundef nonnull %4, i1 noundef zeroext false, i1 noundef zeroext true) #8
  %7 = freeze ptr %6
  %8 = icmp eq ptr %7, null
  br i1 %8, label %9, label %13

9:                                                ; preds = %5
  %10 = load i64, ptr @H5E_PLIST_g, align 8
  %11 = load i64, ptr @H5E_CANTCOPY_g, align 8
  %12 = tail call i32 (ptr, ptr, i32, i64, i64, ptr, ...) @H5E_printf_stack(ptr noundef nonnull @.str.1, ptr noundef nonnull @__func__.H5P__dxfr_dset_io_hyp_sel_copy, i32 noundef 2055, i64 noundef %10, i64 noundef %11, ptr noundef nonnull @.str.73) #8
  br label %._crit_edge

13:                                               ; preds = %5
  store ptr %7, ptr %2, align 8
  br label %._crit_edge

._crit_edge:                                      ; preds = %9, %13, %3
  %.0.ph = phi i32 [ -1, %9 ], [ 0, %13 ], [ 0, %3 ]
  ret i32 %.0.ph
}